target datalayout = "e-m:e-p270:32:32-p271:32:32-p272:64:64-i64:64-i128:128-f80:128-n8:16:32:64-S128"
target triple = "x86_64-pc-linux-gnu"

%struct.psa_key_attributes_s = type { %struct.psa_core_key_attributes_t, ptr, i64 }
%struct.psa_core_key_attributes_t = type { i16, i16, i32, i32, %struct.psa_key_policy_s, i16 }
%struct.psa_key_policy_s = type { i32, i32, i32 }

; Function Attrs: nounwind uwtable
define hidden i32 @psa_driver_wrapper_cipher_decrypt(ptr noundef %0, ptr noundef %1, i64 noundef %2, i32 noundef %3, ptr noundef %4, i64 noundef %5, ptr noundef %6, i64 noundef %7, ptr noundef %8) #0 {
  %10 = alloca i32, align 4
  %11 = alloca ptr, align 8
  %12 = alloca ptr, align 8
  %13 = alloca i64, align 8
  %14 = alloca i32, align 4
  %15 = alloca ptr, align 8
  %16 = alloca i64, align 8
  %17 = alloca ptr, align 8
  %18 = alloca i64, align 8
  %19 = alloca ptr, align 8
  %20 = alloca i32, align 4
  %21 = alloca i32, align 4
  store ptr %0, ptr %11, align 8
  store ptr %1, ptr %12, align 8
  store i64 %2, ptr %13, align 8
  store i32 %3, ptr %14, align 4
  store ptr %4, ptr %15, align 8
  store i64 %5, ptr %16, align 8
  store ptr %6, ptr %17, align 8
  store i64 %7, ptr %18, align 8
  store ptr %8, ptr %19, align 8
  store i32 -151, ptr %20, align 4
  %22 = load ptr, ptr %11, align 8
  %23 = getelementptr inbounds %struct.psa_key_attributes_s, ptr %22, i32 0, i32 0
  %24 = getelementptr inbounds %struct.psa_core_key_attributes_t, ptr %23, i32 0, i32 2
  %25 = load i32, ptr %24, align 4
  %26 = lshr i32 %25, 8
  store i32 %26, ptr %21, align 4
  %27 = load i32, ptr %21, align 4
  switch i32 %27, label %39 [
    i32 0, label %28
  ]

28:                                               ; preds = %9
  %29 = load ptr, ptr %11, align 8
  %30 = load ptr, ptr %12, align 8
  %31 = load i64, ptr %13, align 8
  %32 = load i32, ptr %14, align 4
  %33 = load ptr, ptr %15, align 8
  %34 = load i64, ptr %16, align 8
  %35 = load ptr, ptr %17, align 8
  %36 = load i64, ptr %18, align 8
  %37 = load ptr, ptr %19, align 8
  %38 = call i32 @mbedtls_psa_cipher_decrypt(ptr noundef %29, ptr noundef %30, i64 noundef %31, i32 noundef %32, ptr noundef %33, i64 noundef %34, ptr noundef %35, i64 noundef %36, ptr noundef %37)
  store i32 %38, ptr %10, align 4
  br label %40

39:                                               ; preds = %9
  store i32 -135, ptr %10, align 4
  br label %40

40:                                               ; preds = %39, %28
  %41 = load i32, ptr %10, align 4
  ret i32 %41
}